ARM GAS  C:\Users\63143\AppData\Local\Temp\ccnF3tHV.s 			page 1


   1              		.cpu cortex-m4
   2              		.eabi_attribute 27, 1
   3              		.eabi_attribute 28, 1
   4              		.eabi_attribute 20, 1
   5              		.eabi_attribute 21, 1
   6              		.eabi_attribute 23, 3
   7              		.eabi_attribute 24, 1
   8              		.eabi_attribute 25, 1
   9              		.eabi_attribute 26, 1
  10              		.eabi_attribute 30, 1
  11              		.eabi_attribute 34, 1
  12              		.eabi_attribute 18, 4
  13              		.file	"crc16.c"
  14              		.text
  15              	.Ltext0:
  16              		.cfi_sections	.debug_frame
  17              		.section	.text.CRC16,"ax",%progbits
  18              		.align	1
  19              		.global	CRC16
  20              		.syntax unified
  21              		.thumb
  22              		.thumb_func
  23              		.fpu fpv4-sp-d16
  25              	CRC16:
  26              	.LFB123:
  27              		.file 1 "Core/Src/crc16.c"
   1:Core/Src/crc16.c **** #include "crc16.h"
   2:Core/Src/crc16.c **** 
   3:Core/Src/crc16.c **** static const uint8_t aucCRCHi[] = {
   4:Core/Src/crc16.c ****     0x00, 0xC1, 0x81, 0x40, 0x01, 0xC0, 0x80, 0x41, 0x01, 0xC0, 0x80, 0x41,
   5:Core/Src/crc16.c ****     0x00, 0xC1, 0x81, 0x40, 0x01, 0xC0, 0x80, 0x41, 0x00, 0xC1, 0x81, 0x40,
   6:Core/Src/crc16.c ****     0x00, 0xC1, 0x81, 0x40, 0x01, 0xC0, 0x80, 0x41, 0x01, 0xC0, 0x80, 0x41,
   7:Core/Src/crc16.c ****     0x00, 0xC1, 0x81, 0x40, 0x00, 0xC1, 0x81, 0x40, 0x01, 0xC0, 0x80, 0x41,
   8:Core/Src/crc16.c ****     0x00, 0xC1, 0x81, 0x40, 0x01, 0xC0, 0x80, 0x41, 0x01, 0xC0, 0x80, 0x41,
   9:Core/Src/crc16.c ****     0x00, 0xC1, 0x81, 0x40, 0x01, 0xC0, 0x80, 0x41, 0x00, 0xC1, 0x81, 0x40,
  10:Core/Src/crc16.c ****     0x00, 0xC1, 0x81, 0x40, 0x01, 0xC0, 0x80, 0x41, 0x00, 0xC1, 0x81, 0x40,
  11:Core/Src/crc16.c ****     0x01, 0xC0, 0x80, 0x41, 0x01, 0xC0, 0x80, 0x41, 0x00, 0xC1, 0x81, 0x40,
  12:Core/Src/crc16.c ****     0x00, 0xC1, 0x81, 0x40, 0x01, 0xC0, 0x80, 0x41, 0x01, 0xC0, 0x80, 0x41,
  13:Core/Src/crc16.c ****     0x00, 0xC1, 0x81, 0x40, 0x01, 0xC0, 0x80, 0x41, 0x00, 0xC1, 0x81, 0x40,
  14:Core/Src/crc16.c ****     0x00, 0xC1, 0x81, 0x40, 0x01, 0xC0, 0x80, 0x41, 0x01, 0xC0, 0x80, 0x41,
  15:Core/Src/crc16.c ****     0x00, 0xC1, 0x81, 0x40, 0x00, 0xC1, 0x81, 0x40, 0x01, 0xC0, 0x80, 0x41,
  16:Core/Src/crc16.c ****     0x00, 0xC1, 0x81, 0x40, 0x01, 0xC0, 0x80, 0x41, 0x01, 0xC0, 0x80, 0x41,
  17:Core/Src/crc16.c ****     0x00, 0xC1, 0x81, 0x40, 0x00, 0xC1, 0x81, 0x40, 0x01, 0xC0, 0x80, 0x41,
  18:Core/Src/crc16.c ****     0x01, 0xC0, 0x80, 0x41, 0x00, 0xC1, 0x81, 0x40, 0x01, 0xC0, 0x80, 0x41,
  19:Core/Src/crc16.c ****     0x00, 0xC1, 0x81, 0x40, 0x00, 0xC1, 0x81, 0x40, 0x01, 0xC0, 0x80, 0x41,
  20:Core/Src/crc16.c ****     0x00, 0xC1, 0x81, 0x40, 0x01, 0xC0, 0x80, 0x41, 0x01, 0xC0, 0x80, 0x41,
  21:Core/Src/crc16.c ****     0x00, 0xC1, 0x81, 0x40, 0x01, 0xC0, 0x80, 0x41, 0x00, 0xC1, 0x81, 0x40,
  22:Core/Src/crc16.c ****     0x00, 0xC1, 0x81, 0x40, 0x01, 0xC0, 0x80, 0x41, 0x01, 0xC0, 0x80, 0x41,
  23:Core/Src/crc16.c ****     0x00, 0xC1, 0x81, 0x40, 0x00, 0xC1, 0x81, 0x40, 0x01, 0xC0, 0x80, 0x41,
  24:Core/Src/crc16.c ****     0x00, 0xC1, 0x81, 0x40, 0x01, 0xC0, 0x80, 0x41, 0x01, 0xC0, 0x80, 0x41,
  25:Core/Src/crc16.c ****     0x00, 0xC1, 0x81, 0x40};
  26:Core/Src/crc16.c **** 
  27:Core/Src/crc16.c **** static const uint8_t aucCRCLo[] = {
  28:Core/Src/crc16.c ****     0x00, 0xC0, 0xC1, 0x01, 0xC3, 0x03, 0x02, 0xC2, 0xC6, 0x06, 0x07, 0xC7,
  29:Core/Src/crc16.c ****     0x05, 0xC5, 0xC4, 0x04, 0xCC, 0x0C, 0x0D, 0xCD, 0x0F, 0xCF, 0xCE, 0x0E,
  30:Core/Src/crc16.c ****     0x0A, 0xCA, 0xCB, 0x0B, 0xC9, 0x09, 0x08, 0xC8, 0xD8, 0x18, 0x19, 0xD9,
  31:Core/Src/crc16.c ****     0x1B, 0xDB, 0xDA, 0x1A, 0x1E, 0xDE, 0xDF, 0x1F, 0xDD, 0x1D, 0x1C, 0xDC,
ARM GAS  C:\Users\63143\AppData\Local\Temp\ccnF3tHV.s 			page 2


  32:Core/Src/crc16.c ****     0x14, 0xD4, 0xD5, 0x15, 0xD7, 0x17, 0x16, 0xD6, 0xD2, 0x12, 0x13, 0xD3,
  33:Core/Src/crc16.c ****     0x11, 0xD1, 0xD0, 0x10, 0xF0, 0x30, 0x31, 0xF1, 0x33, 0xF3, 0xF2, 0x32,
  34:Core/Src/crc16.c ****     0x36, 0xF6, 0xF7, 0x37, 0xF5, 0x35, 0x34, 0xF4, 0x3C, 0xFC, 0xFD, 0x3D,
  35:Core/Src/crc16.c ****     0xFF, 0x3F, 0x3E, 0xFE, 0xFA, 0x3A, 0x3B, 0xFB, 0x39, 0xF9, 0xF8, 0x38,
  36:Core/Src/crc16.c ****     0x28, 0xE8, 0xE9, 0x29, 0xEB, 0x2B, 0x2A, 0xEA, 0xEE, 0x2E, 0x2F, 0xEF,
  37:Core/Src/crc16.c ****     0x2D, 0xED, 0xEC, 0x2C, 0xE4, 0x24, 0x25, 0xE5, 0x27, 0xE7, 0xE6, 0x26,
  38:Core/Src/crc16.c ****     0x22, 0xE2, 0xE3, 0x23, 0xE1, 0x21, 0x20, 0xE0, 0xA0, 0x60, 0x61, 0xA1,
  39:Core/Src/crc16.c ****     0x63, 0xA3, 0xA2, 0x62, 0x66, 0xA6, 0xA7, 0x67, 0xA5, 0x65, 0x64, 0xA4,
  40:Core/Src/crc16.c ****     0x6C, 0xAC, 0xAD, 0x6D, 0xAF, 0x6F, 0x6E, 0xAE, 0xAA, 0x6A, 0x6B, 0xAB,
  41:Core/Src/crc16.c ****     0x69, 0xA9, 0xA8, 0x68, 0x78, 0xB8, 0xB9, 0x79, 0xBB, 0x7B, 0x7A, 0xBA,
  42:Core/Src/crc16.c ****     0xBE, 0x7E, 0x7F, 0xBF, 0x7D, 0xBD, 0xBC, 0x7C, 0xB4, 0x74, 0x75, 0xB5,
  43:Core/Src/crc16.c ****     0x77, 0xB7, 0xB6, 0x76, 0x72, 0xB2, 0xB3, 0x73, 0xB1, 0x71, 0x70, 0xB0,
  44:Core/Src/crc16.c ****     0x50, 0x90, 0x91, 0x51, 0x93, 0x53, 0x52, 0x92, 0x96, 0x56, 0x57, 0x97,
  45:Core/Src/crc16.c ****     0x55, 0x95, 0x94, 0x54, 0x9C, 0x5C, 0x5D, 0x9D, 0x5F, 0x9F, 0x9E, 0x5E,
  46:Core/Src/crc16.c ****     0x5A, 0x9A, 0x9B, 0x5B, 0x99, 0x59, 0x58, 0x98, 0x88, 0x48, 0x49, 0x89,
  47:Core/Src/crc16.c ****     0x4B, 0x8B, 0x8A, 0x4A, 0x4E, 0x8E, 0x8F, 0x4F, 0x8D, 0x4D, 0x4C, 0x8C,
  48:Core/Src/crc16.c ****     0x44, 0x84, 0x85, 0x45, 0x87, 0x47, 0x46, 0x86, 0x82, 0x42, 0x43, 0x83,
  49:Core/Src/crc16.c ****     0x41, 0x81, 0x80, 0x40};
  50:Core/Src/crc16.c **** 
  51:Core/Src/crc16.c **** uint16_t CRC16(uint8_t *pucFrame, uint16_t usLen)
  52:Core/Src/crc16.c **** {
  28              		.loc 1 52 0
  29              		.cfi_startproc
  30              		@ args = 0, pretend = 0, frame = 0
  31              		@ frame_needed = 0, uses_anonymous_args = 0
  32              		@ link register save eliminated.
  33              	.LVL0:
  34 0000 30B4     		push	{r4, r5}
  35              	.LCFI0:
  36              		.cfi_def_cfa_offset 8
  37              		.cfi_offset 4, -8
  38              		.cfi_offset 5, -4
  39              	.LVL1:
  53:Core/Src/crc16.c ****     uint8_t ucCRCHi = 0xFF;
  54:Core/Src/crc16.c ****     uint8_t ucCRCLo = 0xFF;
  40              		.loc 1 54 0
  41 0002 FF22     		movs	r2, #255
  53:Core/Src/crc16.c ****     uint8_t ucCRCHi = 0xFF;
  42              		.loc 1 53 0
  43 0004 1546     		mov	r5, r2
  55:Core/Src/crc16.c ****     int iIndex;
  56:Core/Src/crc16.c **** 
  57:Core/Src/crc16.c ****     while (usLen--)
  44              		.loc 1 57 0
  45 0006 08E0     		b	.L2
  46              	.LVL2:
  47              	.L3:
  58:Core/Src/crc16.c ****     {
  59:Core/Src/crc16.c ****         iIndex = ucCRCLo ^ *(pucFrame++);
  48              		.loc 1 59 0
  49 0008 0378     		ldrb	r3, [r0]	@ zero_extendqisi2
  50 000a 5340     		eors	r3, r3, r2
  51              	.LVL3:
  60:Core/Src/crc16.c ****         ucCRCLo = (uint8_t)(ucCRCHi ^ aucCRCHi[iIndex]);
  52              		.loc 1 60 0
  53 000c 074A     		ldr	r2, .L5
  54              	.LVL4:
ARM GAS  C:\Users\63143\AppData\Local\Temp\ccnF3tHV.s 			page 3


  55 000e D25C     		ldrb	r2, [r2, r3]	@ zero_extendqisi2
  56 0010 6A40     		eors	r2, r2, r5
  57              	.LVL5:
  61:Core/Src/crc16.c ****         ucCRCHi = aucCRCLo[iIndex];
  58              		.loc 1 61 0
  59 0012 0749     		ldr	r1, .L5+4
  60 0014 CD5C     		ldrb	r5, [r1, r3]	@ zero_extendqisi2
  61              	.LVL6:
  57:Core/Src/crc16.c ****     {
  62              		.loc 1 57 0
  63 0016 2146     		mov	r1, r4
  59:Core/Src/crc16.c ****         ucCRCLo = (uint8_t)(ucCRCHi ^ aucCRCHi[iIndex]);
  64              		.loc 1 59 0
  65 0018 0130     		adds	r0, r0, #1
  66              	.LVL7:
  67              	.L2:
  57:Core/Src/crc16.c ****     {
  68              		.loc 1 57 0
  69 001a 4B1E     		subs	r3, r1, #1
  70 001c 9CB2     		uxth	r4, r3
  71              	.LVL8:
  72 001e 0029     		cmp	r1, #0
  73 0020 F2D1     		bne	.L3
  62:Core/Src/crc16.c ****     }
  63:Core/Src/crc16.c ****     return (uint16_t)(ucCRCHi << 8 | ucCRCLo);
  64:Core/Src/crc16.c **** }
  74              		.loc 1 64 0
  75 0022 42EA0520 		orr	r0, r2, r5, lsl #8
  76              	.LVL9:
  77 0026 30BC     		pop	{r4, r5}
  78              	.LCFI1:
  79              		.cfi_restore 5
  80              		.cfi_restore 4
  81              		.cfi_def_cfa_offset 0
  82              	.LVL10:
  83 0028 7047     		bx	lr
  84              	.L6:
  85 002a 00BF     		.align	2
  86              	.L5:
  87 002c 00000000 		.word	.LANCHOR0
  88 0030 00000000 		.word	.LANCHOR1
  89              		.cfi_endproc
  90              	.LFE123:
  92              		.section	.rodata.aucCRCHi,"a",%progbits
  93              		.align	2
  94              		.set	.LANCHOR0,. + 0
  97              	aucCRCHi:
  98 0000 00       		.byte	0
  99 0001 C1       		.byte	-63
 100 0002 81       		.byte	-127
 101 0003 40       		.byte	64
 102 0004 01       		.byte	1
 103 0005 C0       		.byte	-64
 104 0006 80       		.byte	-128
 105 0007 41       		.byte	65
 106 0008 01       		.byte	1
 107 0009 C0       		.byte	-64
ARM GAS  C:\Users\63143\AppData\Local\Temp\ccnF3tHV.s 			page 4


 108 000a 80       		.byte	-128
 109 000b 41       		.byte	65
 110 000c 00       		.byte	0
 111 000d C1       		.byte	-63
 112 000e 81       		.byte	-127
 113 000f 40       		.byte	64
 114 0010 01       		.byte	1
 115 0011 C0       		.byte	-64
 116 0012 80       		.byte	-128
 117 0013 41       		.byte	65
 118 0014 00       		.byte	0
 119 0015 C1       		.byte	-63
 120 0016 81       		.byte	-127
 121 0017 40       		.byte	64
 122 0018 00       		.byte	0
 123 0019 C1       		.byte	-63
 124 001a 81       		.byte	-127
 125 001b 40       		.byte	64
 126 001c 01       		.byte	1
 127 001d C0       		.byte	-64
 128 001e 80       		.byte	-128
 129 001f 41       		.byte	65
 130 0020 01       		.byte	1
 131 0021 C0       		.byte	-64
 132 0022 80       		.byte	-128
 133 0023 41       		.byte	65
 134 0024 00       		.byte	0
 135 0025 C1       		.byte	-63
 136 0026 81       		.byte	-127
 137 0027 40       		.byte	64
 138 0028 00       		.byte	0
 139 0029 C1       		.byte	-63
 140 002a 81       		.byte	-127
 141 002b 40       		.byte	64
 142 002c 01       		.byte	1
 143 002d C0       		.byte	-64
 144 002e 80       		.byte	-128
 145 002f 41       		.byte	65
 146 0030 00       		.byte	0
 147 0031 C1       		.byte	-63
 148 0032 81       		.byte	-127
 149 0033 40       		.byte	64
 150 0034 01       		.byte	1
 151 0035 C0       		.byte	-64
 152 0036 80       		.byte	-128
 153 0037 41       		.byte	65
 154 0038 01       		.byte	1
 155 0039 C0       		.byte	-64
 156 003a 80       		.byte	-128
 157 003b 41       		.byte	65
 158 003c 00       		.byte	0
 159 003d C1       		.byte	-63
 160 003e 81       		.byte	-127
 161 003f 40       		.byte	64
 162 0040 01       		.byte	1
 163 0041 C0       		.byte	-64
 164 0042 80       		.byte	-128
ARM GAS  C:\Users\63143\AppData\Local\Temp\ccnF3tHV.s 			page 5


 165 0043 41       		.byte	65
 166 0044 00       		.byte	0
 167 0045 C1       		.byte	-63
 168 0046 81       		.byte	-127
 169 0047 40       		.byte	64
 170 0048 00       		.byte	0
 171 0049 C1       		.byte	-63
 172 004a 81       		.byte	-127
 173 004b 40       		.byte	64
 174 004c 01       		.byte	1
 175 004d C0       		.byte	-64
 176 004e 80       		.byte	-128
 177 004f 41       		.byte	65
 178 0050 00       		.byte	0
 179 0051 C1       		.byte	-63
 180 0052 81       		.byte	-127
 181 0053 40       		.byte	64
 182 0054 01       		.byte	1
 183 0055 C0       		.byte	-64
 184 0056 80       		.byte	-128
 185 0057 41       		.byte	65
 186 0058 01       		.byte	1
 187 0059 C0       		.byte	-64
 188 005a 80       		.byte	-128
 189 005b 41       		.byte	65
 190 005c 00       		.byte	0
 191 005d C1       		.byte	-63
 192 005e 81       		.byte	-127
 193 005f 40       		.byte	64
 194 0060 00       		.byte	0
 195 0061 C1       		.byte	-63
 196 0062 81       		.byte	-127
 197 0063 40       		.byte	64
 198 0064 01       		.byte	1
 199 0065 C0       		.byte	-64
 200 0066 80       		.byte	-128
 201 0067 41       		.byte	65
 202 0068 01       		.byte	1
 203 0069 C0       		.byte	-64
 204 006a 80       		.byte	-128
 205 006b 41       		.byte	65
 206 006c 00       		.byte	0
 207 006d C1       		.byte	-63
 208 006e 81       		.byte	-127
 209 006f 40       		.byte	64
 210 0070 01       		.byte	1
 211 0071 C0       		.byte	-64
 212 0072 80       		.byte	-128
 213 0073 41       		.byte	65
 214 0074 00       		.byte	0
 215 0075 C1       		.byte	-63
 216 0076 81       		.byte	-127
 217 0077 40       		.byte	64
 218 0078 00       		.byte	0
 219 0079 C1       		.byte	-63
 220 007a 81       		.byte	-127
 221 007b 40       		.byte	64
ARM GAS  C:\Users\63143\AppData\Local\Temp\ccnF3tHV.s 			page 6


 222 007c 01       		.byte	1
 223 007d C0       		.byte	-64
 224 007e 80       		.byte	-128
 225 007f 41       		.byte	65
 226 0080 01       		.byte	1
 227 0081 C0       		.byte	-64
 228 0082 80       		.byte	-128
 229 0083 41       		.byte	65
 230 0084 00       		.byte	0
 231 0085 C1       		.byte	-63
 232 0086 81       		.byte	-127
 233 0087 40       		.byte	64
 234 0088 00       		.byte	0
 235 0089 C1       		.byte	-63
 236 008a 81       		.byte	-127
 237 008b 40       		.byte	64
 238 008c 01       		.byte	1
 239 008d C0       		.byte	-64
 240 008e 80       		.byte	-128
 241 008f 41       		.byte	65
 242 0090 00       		.byte	0
 243 0091 C1       		.byte	-63
 244 0092 81       		.byte	-127
 245 0093 40       		.byte	64
 246 0094 01       		.byte	1
 247 0095 C0       		.byte	-64
 248 0096 80       		.byte	-128
 249 0097 41       		.byte	65
 250 0098 01       		.byte	1
 251 0099 C0       		.byte	-64
 252 009a 80       		.byte	-128
 253 009b 41       		.byte	65
 254 009c 00       		.byte	0
 255 009d C1       		.byte	-63
 256 009e 81       		.byte	-127
 257 009f 40       		.byte	64
 258 00a0 00       		.byte	0
 259 00a1 C1       		.byte	-63
 260 00a2 81       		.byte	-127
 261 00a3 40       		.byte	64
 262 00a4 01       		.byte	1
 263 00a5 C0       		.byte	-64
 264 00a6 80       		.byte	-128
 265 00a7 41       		.byte	65
 266 00a8 01       		.byte	1
 267 00a9 C0       		.byte	-64
 268 00aa 80       		.byte	-128
 269 00ab 41       		.byte	65
 270 00ac 00       		.byte	0
 271 00ad C1       		.byte	-63
 272 00ae 81       		.byte	-127
 273 00af 40       		.byte	64
 274 00b0 01       		.byte	1
 275 00b1 C0       		.byte	-64
 276 00b2 80       		.byte	-128
 277 00b3 41       		.byte	65
 278 00b4 00       		.byte	0
ARM GAS  C:\Users\63143\AppData\Local\Temp\ccnF3tHV.s 			page 7


 279 00b5 C1       		.byte	-63
 280 00b6 81       		.byte	-127
 281 00b7 40       		.byte	64
 282 00b8 00       		.byte	0
 283 00b9 C1       		.byte	-63
 284 00ba 81       		.byte	-127
 285 00bb 40       		.byte	64
 286 00bc 01       		.byte	1
 287 00bd C0       		.byte	-64
 288 00be 80       		.byte	-128
 289 00bf 41       		.byte	65
 290 00c0 00       		.byte	0
 291 00c1 C1       		.byte	-63
 292 00c2 81       		.byte	-127
 293 00c3 40       		.byte	64
 294 00c4 01       		.byte	1
 295 00c5 C0       		.byte	-64
 296 00c6 80       		.byte	-128
 297 00c7 41       		.byte	65
 298 00c8 01       		.byte	1
 299 00c9 C0       		.byte	-64
 300 00ca 80       		.byte	-128
 301 00cb 41       		.byte	65
 302 00cc 00       		.byte	0
 303 00cd C1       		.byte	-63
 304 00ce 81       		.byte	-127
 305 00cf 40       		.byte	64
 306 00d0 01       		.byte	1
 307 00d1 C0       		.byte	-64
 308 00d2 80       		.byte	-128
 309 00d3 41       		.byte	65
 310 00d4 00       		.byte	0
 311 00d5 C1       		.byte	-63
 312 00d6 81       		.byte	-127
 313 00d7 40       		.byte	64
 314 00d8 00       		.byte	0
 315 00d9 C1       		.byte	-63
 316 00da 81       		.byte	-127
 317 00db 40       		.byte	64
 318 00dc 01       		.byte	1
 319 00dd C0       		.byte	-64
 320 00de 80       		.byte	-128
 321 00df 41       		.byte	65
 322 00e0 01       		.byte	1
 323 00e1 C0       		.byte	-64
 324 00e2 80       		.byte	-128
 325 00e3 41       		.byte	65
 326 00e4 00       		.byte	0
 327 00e5 C1       		.byte	-63
 328 00e6 81       		.byte	-127
 329 00e7 40       		.byte	64
 330 00e8 00       		.byte	0
 331 00e9 C1       		.byte	-63
 332 00ea 81       		.byte	-127
 333 00eb 40       		.byte	64
 334 00ec 01       		.byte	1
 335 00ed C0       		.byte	-64
ARM GAS  C:\Users\63143\AppData\Local\Temp\ccnF3tHV.s 			page 8


 336 00ee 80       		.byte	-128
 337 00ef 41       		.byte	65
 338 00f0 00       		.byte	0
 339 00f1 C1       		.byte	-63
 340 00f2 81       		.byte	-127
 341 00f3 40       		.byte	64
 342 00f4 01       		.byte	1
 343 00f5 C0       		.byte	-64
 344 00f6 80       		.byte	-128
 345 00f7 41       		.byte	65
 346 00f8 01       		.byte	1
 347 00f9 C0       		.byte	-64
 348 00fa 80       		.byte	-128
 349 00fb 41       		.byte	65
 350 00fc 00       		.byte	0
 351 00fd C1       		.byte	-63
 352 00fe 81       		.byte	-127
 353 00ff 40       		.byte	64
 354              		.section	.rodata.aucCRCLo,"a",%progbits
 355              		.align	2
 356              		.set	.LANCHOR1,. + 0
 359              	aucCRCLo:
 360 0000 00       		.byte	0
 361 0001 C0       		.byte	-64
 362 0002 C1       		.byte	-63
 363 0003 01       		.byte	1
 364 0004 C3       		.byte	-61
 365 0005 03       		.byte	3
 366 0006 02       		.byte	2
 367 0007 C2       		.byte	-62
 368 0008 C6       		.byte	-58
 369 0009 06       		.byte	6
 370 000a 07       		.byte	7
 371 000b C7       		.byte	-57
 372 000c 05       		.byte	5
 373 000d C5       		.byte	-59
 374 000e C4       		.byte	-60
 375 000f 04       		.byte	4
 376 0010 CC       		.byte	-52
 377 0011 0C       		.byte	12
 378 0012 0D       		.byte	13
 379 0013 CD       		.byte	-51
 380 0014 0F       		.byte	15
 381 0015 CF       		.byte	-49
 382 0016 CE       		.byte	-50
 383 0017 0E       		.byte	14
 384 0018 0A       		.byte	10
 385 0019 CA       		.byte	-54
 386 001a CB       		.byte	-53
 387 001b 0B       		.byte	11
 388 001c C9       		.byte	-55
 389 001d 09       		.byte	9
 390 001e 08       		.byte	8
 391 001f C8       		.byte	-56
 392 0020 D8       		.byte	-40
 393 0021 18       		.byte	24
 394 0022 19       		.byte	25
ARM GAS  C:\Users\63143\AppData\Local\Temp\ccnF3tHV.s 			page 9


 395 0023 D9       		.byte	-39
 396 0024 1B       		.byte	27
 397 0025 DB       		.byte	-37
 398 0026 DA       		.byte	-38
 399 0027 1A       		.byte	26
 400 0028 1E       		.byte	30
 401 0029 DE       		.byte	-34
 402 002a DF       		.byte	-33
 403 002b 1F       		.byte	31
 404 002c DD       		.byte	-35
 405 002d 1D       		.byte	29
 406 002e 1C       		.byte	28
 407 002f DC       		.byte	-36
 408 0030 14       		.byte	20
 409 0031 D4       		.byte	-44
 410 0032 D5       		.byte	-43
 411 0033 15       		.byte	21
 412 0034 D7       		.byte	-41
 413 0035 17       		.byte	23
 414 0036 16       		.byte	22
 415 0037 D6       		.byte	-42
 416 0038 D2       		.byte	-46
 417 0039 12       		.byte	18
 418 003a 13       		.byte	19
 419 003b D3       		.byte	-45
 420 003c 11       		.byte	17
 421 003d D1       		.byte	-47
 422 003e D0       		.byte	-48
 423 003f 10       		.byte	16
 424 0040 F0       		.byte	-16
 425 0041 30       		.byte	48
 426 0042 31       		.byte	49
 427 0043 F1       		.byte	-15
 428 0044 33       		.byte	51
 429 0045 F3       		.byte	-13
 430 0046 F2       		.byte	-14
 431 0047 32       		.byte	50
 432 0048 36       		.byte	54
 433 0049 F6       		.byte	-10
 434 004a F7       		.byte	-9
 435 004b 37       		.byte	55
 436 004c F5       		.byte	-11
 437 004d 35       		.byte	53
 438 004e 34       		.byte	52
 439 004f F4       		.byte	-12
 440 0050 3C       		.byte	60
 441 0051 FC       		.byte	-4
 442 0052 FD       		.byte	-3
 443 0053 3D       		.byte	61
 444 0054 FF       		.byte	-1
 445 0055 3F       		.byte	63
 446 0056 3E       		.byte	62
 447 0057 FE       		.byte	-2
 448 0058 FA       		.byte	-6
 449 0059 3A       		.byte	58
 450 005a 3B       		.byte	59
 451 005b FB       		.byte	-5
ARM GAS  C:\Users\63143\AppData\Local\Temp\ccnF3tHV.s 			page 10


 452 005c 39       		.byte	57
 453 005d F9       		.byte	-7
 454 005e F8       		.byte	-8
 455 005f 38       		.byte	56
 456 0060 28       		.byte	40
 457 0061 E8       		.byte	-24
 458 0062 E9       		.byte	-23
 459 0063 29       		.byte	41
 460 0064 EB       		.byte	-21
 461 0065 2B       		.byte	43
 462 0066 2A       		.byte	42
 463 0067 EA       		.byte	-22
 464 0068 EE       		.byte	-18
 465 0069 2E       		.byte	46
 466 006a 2F       		.byte	47
 467 006b EF       		.byte	-17
 468 006c 2D       		.byte	45
 469 006d ED       		.byte	-19
 470 006e EC       		.byte	-20
 471 006f 2C       		.byte	44
 472 0070 E4       		.byte	-28
 473 0071 24       		.byte	36
 474 0072 25       		.byte	37
 475 0073 E5       		.byte	-27
 476 0074 27       		.byte	39
 477 0075 E7       		.byte	-25
 478 0076 E6       		.byte	-26
 479 0077 26       		.byte	38
 480 0078 22       		.byte	34
 481 0079 E2       		.byte	-30
 482 007a E3       		.byte	-29
 483 007b 23       		.byte	35
 484 007c E1       		.byte	-31
 485 007d 21       		.byte	33
 486 007e 20       		.byte	32
 487 007f E0       		.byte	-32
 488 0080 A0       		.byte	-96
 489 0081 60       		.byte	96
 490 0082 61       		.byte	97
 491 0083 A1       		.byte	-95
 492 0084 63       		.byte	99
 493 0085 A3       		.byte	-93
 494 0086 A2       		.byte	-94
 495 0087 62       		.byte	98
 496 0088 66       		.byte	102
 497 0089 A6       		.byte	-90
 498 008a A7       		.byte	-89
 499 008b 67       		.byte	103
 500 008c A5       		.byte	-91
 501 008d 65       		.byte	101
 502 008e 64       		.byte	100
 503 008f A4       		.byte	-92
 504 0090 6C       		.byte	108
 505 0091 AC       		.byte	-84
 506 0092 AD       		.byte	-83
 507 0093 6D       		.byte	109
 508 0094 AF       		.byte	-81
ARM GAS  C:\Users\63143\AppData\Local\Temp\ccnF3tHV.s 			page 11


 509 0095 6F       		.byte	111
 510 0096 6E       		.byte	110
 511 0097 AE       		.byte	-82
 512 0098 AA       		.byte	-86
 513 0099 6A       		.byte	106
 514 009a 6B       		.byte	107
 515 009b AB       		.byte	-85
 516 009c 69       		.byte	105
 517 009d A9       		.byte	-87
 518 009e A8       		.byte	-88
 519 009f 68       		.byte	104
 520 00a0 78       		.byte	120
 521 00a1 B8       		.byte	-72
 522 00a2 B9       		.byte	-71
 523 00a3 79       		.byte	121
 524 00a4 BB       		.byte	-69
 525 00a5 7B       		.byte	123
 526 00a6 7A       		.byte	122
 527 00a7 BA       		.byte	-70
 528 00a8 BE       		.byte	-66
 529 00a9 7E       		.byte	126
 530 00aa 7F       		.byte	127
 531 00ab BF       		.byte	-65
 532 00ac 7D       		.byte	125
 533 00ad BD       		.byte	-67
 534 00ae BC       		.byte	-68
 535 00af 7C       		.byte	124
 536 00b0 B4       		.byte	-76
 537 00b1 74       		.byte	116
 538 00b2 75       		.byte	117
 539 00b3 B5       		.byte	-75
 540 00b4 77       		.byte	119
 541 00b5 B7       		.byte	-73
 542 00b6 B6       		.byte	-74
 543 00b7 76       		.byte	118
 544 00b8 72       		.byte	114
 545 00b9 B2       		.byte	-78
 546 00ba B3       		.byte	-77
 547 00bb 73       		.byte	115
 548 00bc B1       		.byte	-79
 549 00bd 71       		.byte	113
 550 00be 70       		.byte	112
 551 00bf B0       		.byte	-80
 552 00c0 50       		.byte	80
 553 00c1 90       		.byte	-112
 554 00c2 91       		.byte	-111
 555 00c3 51       		.byte	81
 556 00c4 93       		.byte	-109
 557 00c5 53       		.byte	83
 558 00c6 52       		.byte	82
 559 00c7 92       		.byte	-110
 560 00c8 96       		.byte	-106
 561 00c9 56       		.byte	86
 562 00ca 57       		.byte	87
 563 00cb 97       		.byte	-105
 564 00cc 55       		.byte	85
 565 00cd 95       		.byte	-107
ARM GAS  C:\Users\63143\AppData\Local\Temp\ccnF3tHV.s 			page 12


 566 00ce 94       		.byte	-108
 567 00cf 54       		.byte	84
 568 00d0 9C       		.byte	-100
 569 00d1 5C       		.byte	92
 570 00d2 5D       		.byte	93
 571 00d3 9D       		.byte	-99
 572 00d4 5F       		.byte	95
 573 00d5 9F       		.byte	-97
 574 00d6 9E       		.byte	-98
 575 00d7 5E       		.byte	94
 576 00d8 5A       		.byte	90
 577 00d9 9A       		.byte	-102
 578 00da 9B       		.byte	-101
 579 00db 5B       		.byte	91
 580 00dc 99       		.byte	-103
 581 00dd 59       		.byte	89
 582 00de 58       		.byte	88
 583 00df 98       		.byte	-104
 584 00e0 88       		.byte	-120
 585 00e1 48       		.byte	72
 586 00e2 49       		.byte	73
 587 00e3 89       		.byte	-119
 588 00e4 4B       		.byte	75
 589 00e5 8B       		.byte	-117
 590 00e6 8A       		.byte	-118
 591 00e7 4A       		.byte	74
 592 00e8 4E       		.byte	78
 593 00e9 8E       		.byte	-114
 594 00ea 8F       		.byte	-113
 595 00eb 4F       		.byte	79
 596 00ec 8D       		.byte	-115
 597 00ed 4D       		.byte	77
 598 00ee 4C       		.byte	76
 599 00ef 8C       		.byte	-116
 600 00f0 44       		.byte	68
 601 00f1 84       		.byte	-124
 602 00f2 85       		.byte	-123
 603 00f3 45       		.byte	69
 604 00f4 87       		.byte	-121
 605 00f5 47       		.byte	71
 606 00f6 46       		.byte	70
 607 00f7 86       		.byte	-122
 608 00f8 82       		.byte	-126
 609 00f9 42       		.byte	66
 610 00fa 43       		.byte	67
 611 00fb 83       		.byte	-125
 612 00fc 41       		.byte	65
 613 00fd 81       		.byte	-127
 614 00fe 80       		.byte	-128
 615 00ff 40       		.byte	64
 616              		.text
 617              	.Letext0:
 618              		.file 2 "c:\\msys64\\home\\63143\\gcc-arm-none-eabi-7-2018-q2-update-win32\\arm-none-eabi\\include
 619              		.file 3 "c:\\msys64\\home\\63143\\gcc-arm-none-eabi-7-2018-q2-update-win32\\arm-none-eabi\\include
 620              		.file 4 "Drivers/CMSIS/Include/core_cm4.h"
 621              		.file 5 "Drivers/CMSIS/Device/ST/STM32F4xx/Include/system_stm32f4xx.h"
ARM GAS  C:\Users\63143\AppData\Local\Temp\ccnF3tHV.s 			page 13


DEFINED SYMBOLS
                            *ABS*:00000000 crc16.c
C:\Users\63143\AppData\Local\Temp\ccnF3tHV.s:18     .text.CRC16:00000000 $t
C:\Users\63143\AppData\Local\Temp\ccnF3tHV.s:25     .text.CRC16:00000000 CRC16
C:\Users\63143\AppData\Local\Temp\ccnF3tHV.s:87     .text.CRC16:0000002c $d
C:\Users\63143\AppData\Local\Temp\ccnF3tHV.s:93     .rodata.aucCRCHi:00000000 $d
C:\Users\63143\AppData\Local\Temp\ccnF3tHV.s:97     .rodata.aucCRCHi:00000000 aucCRCHi
C:\Users\63143\AppData\Local\Temp\ccnF3tHV.s:355    .rodata.aucCRCLo:00000000 $d
C:\Users\63143\AppData\Local\Temp\ccnF3tHV.s:359    .rodata.aucCRCLo:00000000 aucCRCLo

NO UNDEFINED SYMBOLS
