ARM GAS  C:\Users\63143\AppData\Local\Temp\ccUTh8Kz.s 			page 1


   1              		.cpu cortex-m4
   2              		.eabi_attribute 27, 1
   3              		.eabi_attribute 28, 1
   4              		.eabi_attribute 20, 1
   5              		.eabi_attribute 21, 1
   6              		.eabi_attribute 23, 3
   7              		.eabi_attribute 24, 1
   8              		.eabi_attribute 25, 1
   9              		.eabi_attribute 26, 1
  10              		.eabi_attribute 30, 1
  11              		.eabi_attribute 34, 1
  12              		.eabi_attribute 18, 4
  13              		.file	"stm32f4xx_it.c"
  14              		.text
  15              	.Ltext0:
  16              		.cfi_sections	.debug_frame
  17              		.section	.text.NMI_Handler,"ax",%progbits
  18              		.align	1
  19              		.global	NMI_Handler
  20              		.syntax unified
  21              		.thumb
  22              		.thumb_func
  23              		.fpu fpv4-sp-d16
  25              	NMI_Handler:
  26              	.LFB156:
  27              		.file 1 "Core/Src/stm32f4xx_it.c"
   1:Core/Src/stm32f4xx_it.c **** /* USER CODE BEGIN Header */
   2:Core/Src/stm32f4xx_it.c **** /**
   3:Core/Src/stm32f4xx_it.c ****   ******************************************************************************
   4:Core/Src/stm32f4xx_it.c ****   * @file    stm32f4xx_it.c
   5:Core/Src/stm32f4xx_it.c ****   * @brief   Interrupt Service Routines.
   6:Core/Src/stm32f4xx_it.c ****   ******************************************************************************
   7:Core/Src/stm32f4xx_it.c ****   *
   8:Core/Src/stm32f4xx_it.c ****   * COPYRIGHT(c) 2019 STMicroelectronics
   9:Core/Src/stm32f4xx_it.c ****   *
  10:Core/Src/stm32f4xx_it.c ****   * Redistribution and use in source and binary forms, with or without modification,
  11:Core/Src/stm32f4xx_it.c ****   * are permitted provided that the following conditions are met:
  12:Core/Src/stm32f4xx_it.c ****   *   1. Redistributions of source code must retain the above copyright notice,
  13:Core/Src/stm32f4xx_it.c ****   *      this list of conditions and the following disclaimer.
  14:Core/Src/stm32f4xx_it.c ****   *   2. Redistributions in binary form must reproduce the above copyright notice,
  15:Core/Src/stm32f4xx_it.c ****   *      this list of conditions and the following disclaimer in the documentation
  16:Core/Src/stm32f4xx_it.c ****   *      and/or other materials provided with the distribution.
  17:Core/Src/stm32f4xx_it.c ****   *   3. Neither the name of STMicroelectronics nor the names of its contributors
  18:Core/Src/stm32f4xx_it.c ****   *      may be used to endorse or promote products derived from this software
  19:Core/Src/stm32f4xx_it.c ****   *      without specific prior written permission.
  20:Core/Src/stm32f4xx_it.c ****   *
  21:Core/Src/stm32f4xx_it.c ****   * THIS SOFTWARE IS PROVIDED BY THE COPYRIGHT HOLDERS AND CONTRIBUTORS "AS IS"
  22:Core/Src/stm32f4xx_it.c ****   * AND ANY EXPRESS OR IMPLIED WARRANTIES, INCLUDING, BUT NOT LIMITED TO, THE
  23:Core/Src/stm32f4xx_it.c ****   * IMPLIED WARRANTIES OF MERCHANTABILITY AND FITNESS FOR A PARTICULAR PURPOSE ARE
  24:Core/Src/stm32f4xx_it.c ****   * DISCLAIMED. IN NO EVENT SHALL THE COPYRIGHT HOLDER OR CONTRIBUTORS BE LIABLE
  25:Core/Src/stm32f4xx_it.c ****   * FOR ANY DIRECT, INDIRECT, INCIDENTAL, SPECIAL, EXEMPLARY, OR CONSEQUENTIAL
  26:Core/Src/stm32f4xx_it.c ****   * DAMAGES (INCLUDING, BUT NOT LIMITED TO, PROCUREMENT OF SUBSTITUTE GOODS OR
  27:Core/Src/stm32f4xx_it.c ****   * SERVICES; LOSS OF USE, DATA, OR PROFITS; OR BUSINESS INTERRUPTION) HOWEVER
  28:Core/Src/stm32f4xx_it.c ****   * CAUSED AND ON ANY THEORY OF LIABILITY, WHETHER IN CONTRACT, STRICT LIABILITY,
  29:Core/Src/stm32f4xx_it.c ****   * OR TORT (INCLUDING NEGLIGENCE OR OTHERWISE) ARISING IN ANY WAY OUT OF THE USE
  30:Core/Src/stm32f4xx_it.c ****   * OF THIS SOFTWARE, EVEN IF ADVISED OF THE POSSIBILITY OF SUCH DAMAGE.
  31:Core/Src/stm32f4xx_it.c ****   *
ARM GAS  C:\Users\63143\AppData\Local\Temp\ccUTh8Kz.s 			page 2


  32:Core/Src/stm32f4xx_it.c ****   ******************************************************************************
  33:Core/Src/stm32f4xx_it.c ****   */
  34:Core/Src/stm32f4xx_it.c **** /* USER CODE END Header */
  35:Core/Src/stm32f4xx_it.c **** 
  36:Core/Src/stm32f4xx_it.c **** /* Includes ------------------------------------------------------------------*/
  37:Core/Src/stm32f4xx_it.c **** #include "main.h"
  38:Core/Src/stm32f4xx_it.c **** #include "stm32f4xx_it.h"
  39:Core/Src/stm32f4xx_it.c **** /* Private includes ----------------------------------------------------------*/
  40:Core/Src/stm32f4xx_it.c **** /* USER CODE BEGIN Includes */
  41:Core/Src/stm32f4xx_it.c **** #include <stdbool.h>
  42:Core/Src/stm32f4xx_it.c **** #include "utility.h"
  43:Core/Src/stm32f4xx_it.c **** #include "arm_math.h" //enable dsp lib
  44:Core/Src/stm32f4xx_it.c **** #include "gpio.h"
  45:Core/Src/stm32f4xx_it.c **** #include "usart.h"
  46:Core/Src/stm32f4xx_it.c **** #include "tim.h"
  47:Core/Src/stm32f4xx_it.c **** #include "TLV56xx.h"
  48:Core/Src/stm32f4xx_it.c **** #include "array_queue.h"
  49:Core/Src/stm32f4xx_it.c **** #include "hmi_driver.h"
  50:Core/Src/stm32f4xx_it.c **** /* USER CODE END Includes */
  51:Core/Src/stm32f4xx_it.c **** 
  52:Core/Src/stm32f4xx_it.c **** /* Private typedef -----------------------------------------------------------*/
  53:Core/Src/stm32f4xx_it.c **** /* USER CODE BEGIN TD */
  54:Core/Src/stm32f4xx_it.c **** extern UART_HandleTypeDef huart3;
  55:Core/Src/stm32f4xx_it.c **** extern Queue myqueue;
  56:Core/Src/stm32f4xx_it.c **** extern uint8_t uart3_rev_cache[10];
  57:Core/Src/stm32f4xx_it.c **** // extern uint16_t counter;
  58:Core/Src/stm32f4xx_it.c **** extern quint8 ctrl;
  59:Core/Src/stm32f4xx_it.c **** extern float phase;
  60:Core/Src/stm32f4xx_it.c **** extern float voltage;
  61:Core/Src/stm32f4xx_it.c **** /* USER CODE END TD */
  62:Core/Src/stm32f4xx_it.c **** 
  63:Core/Src/stm32f4xx_it.c **** /* Private define ------------------------------------------------------------*/
  64:Core/Src/stm32f4xx_it.c **** /* USER CODE BEGIN PD */
  65:Core/Src/stm32f4xx_it.c **** 
  66:Core/Src/stm32f4xx_it.c **** /* USER CODE END PD */
  67:Core/Src/stm32f4xx_it.c **** 
  68:Core/Src/stm32f4xx_it.c **** /* Private macro -------------------------------------------------------------*/
  69:Core/Src/stm32f4xx_it.c **** /* USER CODE BEGIN PM */
  70:Core/Src/stm32f4xx_it.c **** 
  71:Core/Src/stm32f4xx_it.c **** /* USER CODE END PM */
  72:Core/Src/stm32f4xx_it.c **** 
  73:Core/Src/stm32f4xx_it.c **** /* Private variables ---------------------------------------------------------*/
  74:Core/Src/stm32f4xx_it.c **** /* USER CODE BEGIN PV */
  75:Core/Src/stm32f4xx_it.c **** 
  76:Core/Src/stm32f4xx_it.c **** /* USER CODE END PV */
  77:Core/Src/stm32f4xx_it.c **** 
  78:Core/Src/stm32f4xx_it.c **** /* Private function prototypes -----------------------------------------------*/
  79:Core/Src/stm32f4xx_it.c **** /* USER CODE BEGIN PFP */
  80:Core/Src/stm32f4xx_it.c **** 
  81:Core/Src/stm32f4xx_it.c **** /* USER CODE END PFP */
  82:Core/Src/stm32f4xx_it.c **** 
  83:Core/Src/stm32f4xx_it.c **** /* Private user code ---------------------------------------------------------*/
  84:Core/Src/stm32f4xx_it.c **** /* USER CODE BEGIN 0 */
  85:Core/Src/stm32f4xx_it.c **** 
  86:Core/Src/stm32f4xx_it.c **** /* USER CODE END 0 */
  87:Core/Src/stm32f4xx_it.c **** 
  88:Core/Src/stm32f4xx_it.c **** /* External variables --------------------------------------------------------*/
ARM GAS  C:\Users\63143\AppData\Local\Temp\ccUTh8Kz.s 			page 3


  89:Core/Src/stm32f4xx_it.c **** extern TIM_HandleTypeDef htim2;
  90:Core/Src/stm32f4xx_it.c **** extern TIM_HandleTypeDef htim3;
  91:Core/Src/stm32f4xx_it.c **** extern float64_t T;
  92:Core/Src/stm32f4xx_it.c **** /* USER CODE BEGIN EV */
  93:Core/Src/stm32f4xx_it.c **** 
  94:Core/Src/stm32f4xx_it.c **** /* USER CODE END EV */
  95:Core/Src/stm32f4xx_it.c **** 
  96:Core/Src/stm32f4xx_it.c **** /******************************************************************************/
  97:Core/Src/stm32f4xx_it.c **** /*           Cortex-M4 Processor Interruption and Exception Handlers          */
  98:Core/Src/stm32f4xx_it.c **** /******************************************************************************/
  99:Core/Src/stm32f4xx_it.c **** /**
 100:Core/Src/stm32f4xx_it.c ****   * @brief This function handles Non maskable interrupt.
 101:Core/Src/stm32f4xx_it.c ****   */
 102:Core/Src/stm32f4xx_it.c **** void NMI_Handler(void)
 103:Core/Src/stm32f4xx_it.c **** {
  28              		.loc 1 103 0
  29              		.cfi_startproc
  30              		@ args = 0, pretend = 0, frame = 0
  31              		@ frame_needed = 0, uses_anonymous_args = 0
  32              		@ link register save eliminated.
 104:Core/Src/stm32f4xx_it.c ****   /* USER CODE BEGIN NonMaskableInt_IRQn 0 */
 105:Core/Src/stm32f4xx_it.c **** 
 106:Core/Src/stm32f4xx_it.c ****   /* USER CODE END NonMaskableInt_IRQn 0 */
 107:Core/Src/stm32f4xx_it.c ****   /* USER CODE BEGIN NonMaskableInt_IRQn 1 */
 108:Core/Src/stm32f4xx_it.c **** 
 109:Core/Src/stm32f4xx_it.c ****   /* USER CODE END NonMaskableInt_IRQn 1 */
 110:Core/Src/stm32f4xx_it.c **** }
  33              		.loc 1 110 0
  34 0000 7047     		bx	lr
  35              		.cfi_endproc
  36              	.LFE156:
  38              		.section	.text.HardFault_Handler,"ax",%progbits
  39              		.align	1
  40              		.global	HardFault_Handler
  41              		.syntax unified
  42              		.thumb
  43              		.thumb_func
  44              		.fpu fpv4-sp-d16
  46              	HardFault_Handler:
  47              	.LFB157:
 111:Core/Src/stm32f4xx_it.c **** 
 112:Core/Src/stm32f4xx_it.c **** /**
 113:Core/Src/stm32f4xx_it.c ****   * @brief This function handles Hard fault interrupt.
 114:Core/Src/stm32f4xx_it.c ****   */
 115:Core/Src/stm32f4xx_it.c **** void HardFault_Handler(void)
 116:Core/Src/stm32f4xx_it.c **** {
  48              		.loc 1 116 0
  49              		.cfi_startproc
  50              		@ Volatile: function does not return.
  51              		@ args = 0, pretend = 0, frame = 0
  52              		@ frame_needed = 0, uses_anonymous_args = 0
  53              		@ link register save eliminated.
  54              	.L3:
  55 0000 FEE7     		b	.L3
  56              		.cfi_endproc
  57              	.LFE157:
  59              		.section	.text.MemManage_Handler,"ax",%progbits
ARM GAS  C:\Users\63143\AppData\Local\Temp\ccUTh8Kz.s 			page 4


  60              		.align	1
  61              		.global	MemManage_Handler
  62              		.syntax unified
  63              		.thumb
  64              		.thumb_func
  65              		.fpu fpv4-sp-d16
  67              	MemManage_Handler:
  68              	.LFB158:
 117:Core/Src/stm32f4xx_it.c ****   /* USER CODE BEGIN HardFault_IRQn 0 */
 118:Core/Src/stm32f4xx_it.c **** 
 119:Core/Src/stm32f4xx_it.c ****   /* USER CODE END HardFault_IRQn 0 */
 120:Core/Src/stm32f4xx_it.c ****   while (1)
 121:Core/Src/stm32f4xx_it.c ****   {
 122:Core/Src/stm32f4xx_it.c ****     /* USER CODE BEGIN W1_HardFault_IRQn 0 */
 123:Core/Src/stm32f4xx_it.c ****     /* USER CODE END W1_HardFault_IRQn 0 */
 124:Core/Src/stm32f4xx_it.c ****   }
 125:Core/Src/stm32f4xx_it.c **** }
 126:Core/Src/stm32f4xx_it.c **** 
 127:Core/Src/stm32f4xx_it.c **** /**
 128:Core/Src/stm32f4xx_it.c ****   * @brief This function handles Memory management fault.
 129:Core/Src/stm32f4xx_it.c ****   */
 130:Core/Src/stm32f4xx_it.c **** void MemManage_Handler(void)
 131:Core/Src/stm32f4xx_it.c **** {
  69              		.loc 1 131 0
  70              		.cfi_startproc
  71              		@ Volatile: function does not return.
  72              		@ args = 0, pretend = 0, frame = 0
  73              		@ frame_needed = 0, uses_anonymous_args = 0
  74              		@ link register save eliminated.
  75              	.L5:
  76 0000 FEE7     		b	.L5
  77              		.cfi_endproc
  78              	.LFE158:
  80              		.section	.text.BusFault_Handler,"ax",%progbits
  81              		.align	1
  82              		.global	BusFault_Handler
  83              		.syntax unified
  84              		.thumb
  85              		.thumb_func
  86              		.fpu fpv4-sp-d16
  88              	BusFault_Handler:
  89              	.LFB159:
 132:Core/Src/stm32f4xx_it.c ****   /* USER CODE BEGIN MemoryManagement_IRQn 0 */
 133:Core/Src/stm32f4xx_it.c **** 
 134:Core/Src/stm32f4xx_it.c ****   /* USER CODE END MemoryManagement_IRQn 0 */
 135:Core/Src/stm32f4xx_it.c ****   while (1)
 136:Core/Src/stm32f4xx_it.c ****   {
 137:Core/Src/stm32f4xx_it.c ****     /* USER CODE BEGIN W1_MemoryManagement_IRQn 0 */
 138:Core/Src/stm32f4xx_it.c ****     /* USER CODE END W1_MemoryManagement_IRQn 0 */
 139:Core/Src/stm32f4xx_it.c ****   }
 140:Core/Src/stm32f4xx_it.c **** }
 141:Core/Src/stm32f4xx_it.c **** 
 142:Core/Src/stm32f4xx_it.c **** /**
 143:Core/Src/stm32f4xx_it.c ****   * @brief This function handles Pre-fetch fault, memory access fault.
 144:Core/Src/stm32f4xx_it.c ****   */
 145:Core/Src/stm32f4xx_it.c **** void BusFault_Handler(void)
 146:Core/Src/stm32f4xx_it.c **** {
ARM GAS  C:\Users\63143\AppData\Local\Temp\ccUTh8Kz.s 			page 5


  90              		.loc 1 146 0
  91              		.cfi_startproc
  92              		@ Volatile: function does not return.
  93              		@ args = 0, pretend = 0, frame = 0
  94              		@ frame_needed = 0, uses_anonymous_args = 0
  95              		@ link register save eliminated.
  96              	.L7:
  97 0000 FEE7     		b	.L7
  98              		.cfi_endproc
  99              	.LFE159:
 101              		.section	.text.UsageFault_Handler,"ax",%progbits
 102              		.align	1
 103              		.global	UsageFault_Handler
 104              		.syntax unified
 105              		.thumb
 106              		.thumb_func
 107              		.fpu fpv4-sp-d16
 109              	UsageFault_Handler:
 110              	.LFB160:
 147:Core/Src/stm32f4xx_it.c ****   /* USER CODE BEGIN BusFault_IRQn 0 */
 148:Core/Src/stm32f4xx_it.c **** 
 149:Core/Src/stm32f4xx_it.c ****   /* USER CODE END BusFault_IRQn 0 */
 150:Core/Src/stm32f4xx_it.c ****   while (1)
 151:Core/Src/stm32f4xx_it.c ****   {
 152:Core/Src/stm32f4xx_it.c ****     /* USER CODE BEGIN W1_BusFault_IRQn 0 */
 153:Core/Src/stm32f4xx_it.c ****     /* USER CODE END W1_BusFault_IRQn 0 */
 154:Core/Src/stm32f4xx_it.c ****   }
 155:Core/Src/stm32f4xx_it.c **** }
 156:Core/Src/stm32f4xx_it.c **** 
 157:Core/Src/stm32f4xx_it.c **** /**
 158:Core/Src/stm32f4xx_it.c ****   * @brief This function handles Undefined instruction or illegal state.
 159:Core/Src/stm32f4xx_it.c ****   */
 160:Core/Src/stm32f4xx_it.c **** void UsageFault_Handler(void)
 161:Core/Src/stm32f4xx_it.c **** {
 111              		.loc 1 161 0
 112              		.cfi_startproc
 113              		@ Volatile: function does not return.
 114              		@ args = 0, pretend = 0, frame = 0
 115              		@ frame_needed = 0, uses_anonymous_args = 0
 116              		@ link register save eliminated.
 117              	.L9:
 118 0000 FEE7     		b	.L9
 119              		.cfi_endproc
 120              	.LFE160:
 122              		.section	.text.SVC_Handler,"ax",%progbits
 123              		.align	1
 124              		.global	SVC_Handler
 125              		.syntax unified
 126              		.thumb
 127              		.thumb_func
 128              		.fpu fpv4-sp-d16
 130              	SVC_Handler:
 131              	.LFB161:
 162:Core/Src/stm32f4xx_it.c ****   /* USER CODE BEGIN UsageFault_IRQn 0 */
 163:Core/Src/stm32f4xx_it.c **** 
 164:Core/Src/stm32f4xx_it.c ****   /* USER CODE END UsageFault_IRQn 0 */
 165:Core/Src/stm32f4xx_it.c ****   while (1)
ARM GAS  C:\Users\63143\AppData\Local\Temp\ccUTh8Kz.s 			page 6


 166:Core/Src/stm32f4xx_it.c ****   {
 167:Core/Src/stm32f4xx_it.c ****     /* USER CODE BEGIN W1_UsageFault_IRQn 0 */
 168:Core/Src/stm32f4xx_it.c ****     /* USER CODE END W1_UsageFault_IRQn 0 */
 169:Core/Src/stm32f4xx_it.c ****   }
 170:Core/Src/stm32f4xx_it.c **** }
 171:Core/Src/stm32f4xx_it.c **** 
 172:Core/Src/stm32f4xx_it.c **** /**
 173:Core/Src/stm32f4xx_it.c ****   * @brief This function handles System service call via SWI instruction.
 174:Core/Src/stm32f4xx_it.c ****   */
 175:Core/Src/stm32f4xx_it.c **** void SVC_Handler(void)
 176:Core/Src/stm32f4xx_it.c **** {
 132              		.loc 1 176 0
 133              		.cfi_startproc
 134              		@ args = 0, pretend = 0, frame = 0
 135              		@ frame_needed = 0, uses_anonymous_args = 0
 136              		@ link register save eliminated.
 177:Core/Src/stm32f4xx_it.c ****   /* USER CODE BEGIN SVCall_IRQn 0 */
 178:Core/Src/stm32f4xx_it.c **** 
 179:Core/Src/stm32f4xx_it.c ****   /* USER CODE END SVCall_IRQn 0 */
 180:Core/Src/stm32f4xx_it.c ****   /* USER CODE BEGIN SVCall_IRQn 1 */
 181:Core/Src/stm32f4xx_it.c **** 
 182:Core/Src/stm32f4xx_it.c ****   /* USER CODE END SVCall_IRQn 1 */
 183:Core/Src/stm32f4xx_it.c **** }
 137              		.loc 1 183 0
 138 0000 7047     		bx	lr
 139              		.cfi_endproc
 140              	.LFE161:
 142              		.section	.text.DebugMon_Handler,"ax",%progbits
 143              		.align	1
 144              		.global	DebugMon_Handler
 145              		.syntax unified
 146              		.thumb
 147              		.thumb_func
 148              		.fpu fpv4-sp-d16
 150              	DebugMon_Handler:
 151              	.LFB162:
 184:Core/Src/stm32f4xx_it.c **** 
 185:Core/Src/stm32f4xx_it.c **** /**
 186:Core/Src/stm32f4xx_it.c ****   * @brief This function handles Debug monitor.
 187:Core/Src/stm32f4xx_it.c ****   */
 188:Core/Src/stm32f4xx_it.c **** void DebugMon_Handler(void)
 189:Core/Src/stm32f4xx_it.c **** {
 152              		.loc 1 189 0
 153              		.cfi_startproc
 154              		@ args = 0, pretend = 0, frame = 0
 155              		@ frame_needed = 0, uses_anonymous_args = 0
 156              		@ link register save eliminated.
 190:Core/Src/stm32f4xx_it.c ****   /* USER CODE BEGIN DebugMonitor_IRQn 0 */
 191:Core/Src/stm32f4xx_it.c **** 
 192:Core/Src/stm32f4xx_it.c ****   /* USER CODE END DebugMonitor_IRQn 0 */
 193:Core/Src/stm32f4xx_it.c ****   /* USER CODE BEGIN DebugMonitor_IRQn 1 */
 194:Core/Src/stm32f4xx_it.c **** 
 195:Core/Src/stm32f4xx_it.c ****   /* USER CODE END DebugMonitor_IRQn 1 */
 196:Core/Src/stm32f4xx_it.c **** }
 157              		.loc 1 196 0
 158 0000 7047     		bx	lr
 159              		.cfi_endproc
ARM GAS  C:\Users\63143\AppData\Local\Temp\ccUTh8Kz.s 			page 7


 160              	.LFE162:
 162              		.section	.text.PendSV_Handler,"ax",%progbits
 163              		.align	1
 164              		.global	PendSV_Handler
 165              		.syntax unified
 166              		.thumb
 167              		.thumb_func
 168              		.fpu fpv4-sp-d16
 170              	PendSV_Handler:
 171              	.LFB163:
 197:Core/Src/stm32f4xx_it.c **** 
 198:Core/Src/stm32f4xx_it.c **** /**
 199:Core/Src/stm32f4xx_it.c ****   * @brief This function handles Pendable request for system service.
 200:Core/Src/stm32f4xx_it.c ****   */
 201:Core/Src/stm32f4xx_it.c **** void PendSV_Handler(void)
 202:Core/Src/stm32f4xx_it.c **** {
 172              		.loc 1 202 0
 173              		.cfi_startproc
 174              		@ args = 0, pretend = 0, frame = 0
 175              		@ frame_needed = 0, uses_anonymous_args = 0
 176              		@ link register save eliminated.
 203:Core/Src/stm32f4xx_it.c ****   /* USER CODE BEGIN PendSV_IRQn 0 */
 204:Core/Src/stm32f4xx_it.c **** 
 205:Core/Src/stm32f4xx_it.c ****   /* USER CODE END PendSV_IRQn 0 */
 206:Core/Src/stm32f4xx_it.c ****   /* USER CODE BEGIN PendSV_IRQn 1 */
 207:Core/Src/stm32f4xx_it.c **** 
 208:Core/Src/stm32f4xx_it.c ****   /* USER CODE END PendSV_IRQn 1 */
 209:Core/Src/stm32f4xx_it.c **** }
 177              		.loc 1 209 0
 178 0000 7047     		bx	lr
 179              		.cfi_endproc
 180              	.LFE163:
 182              		.section	.text.SysTick_Handler,"ax",%progbits
 183              		.align	1
 184              		.global	SysTick_Handler
 185              		.syntax unified
 186              		.thumb
 187              		.thumb_func
 188              		.fpu fpv4-sp-d16
 190              	SysTick_Handler:
 191              	.LFB164:
 210:Core/Src/stm32f4xx_it.c **** 
 211:Core/Src/stm32f4xx_it.c **** /**
 212:Core/Src/stm32f4xx_it.c ****   * @brief This function handles System tick timer.
 213:Core/Src/stm32f4xx_it.c ****   */
 214:Core/Src/stm32f4xx_it.c **** void SysTick_Handler(void)
 215:Core/Src/stm32f4xx_it.c **** {
 192              		.loc 1 215 0
 193              		.cfi_startproc
 194              		@ args = 0, pretend = 0, frame = 0
 195              		@ frame_needed = 0, uses_anonymous_args = 0
 196 0000 08B5     		push	{r3, lr}
 197              	.LCFI0:
 198              		.cfi_def_cfa_offset 8
 199              		.cfi_offset 3, -8
 200              		.cfi_offset 14, -4
 216:Core/Src/stm32f4xx_it.c ****   /* USER CODE BEGIN SysTick_IRQn 0 */
ARM GAS  C:\Users\63143\AppData\Local\Temp\ccUTh8Kz.s 			page 8


 217:Core/Src/stm32f4xx_it.c **** 
 218:Core/Src/stm32f4xx_it.c ****   /* USER CODE END SysTick_IRQn 0 */
 219:Core/Src/stm32f4xx_it.c ****   HAL_IncTick();
 201              		.loc 1 219 0
 202 0002 FFF7FEFF 		bl	HAL_IncTick
 203              	.LVL0:
 220:Core/Src/stm32f4xx_it.c ****   /* USER CODE BEGIN SysTick_IRQn 1 */
 221:Core/Src/stm32f4xx_it.c **** 
 222:Core/Src/stm32f4xx_it.c ****   /* USER CODE END SysTick_IRQn 1 */
 223:Core/Src/stm32f4xx_it.c **** }
 204              		.loc 1 223 0
 205 0006 08BD     		pop	{r3, pc}
 206              		.cfi_endproc
 207              	.LFE164:
 209              		.section	.text.TIM2_IRQHandler,"ax",%progbits
 210              		.align	1
 211              		.global	TIM2_IRQHandler
 212              		.syntax unified
 213              		.thumb
 214              		.thumb_func
 215              		.fpu fpv4-sp-d16
 217              	TIM2_IRQHandler:
 218              	.LFB165:
 224:Core/Src/stm32f4xx_it.c **** 
 225:Core/Src/stm32f4xx_it.c **** /******************************************************************************/
 226:Core/Src/stm32f4xx_it.c **** /* STM32F4xx Peripheral Interrupt Handlers                                    */
 227:Core/Src/stm32f4xx_it.c **** /* Add here the Interrupt Handlers for the used peripherals.                  */
 228:Core/Src/stm32f4xx_it.c **** /* For the available peripheral interrupt handler names,                      */
 229:Core/Src/stm32f4xx_it.c **** /* please refer to the startup file (startup_stm32f4xx.s).                    */
 230:Core/Src/stm32f4xx_it.c **** /******************************************************************************/
 231:Core/Src/stm32f4xx_it.c **** 
 232:Core/Src/stm32f4xx_it.c **** /**
 233:Core/Src/stm32f4xx_it.c ****   * @brief This function handles TIM2 global interrupt.
 234:Core/Src/stm32f4xx_it.c ****   */
 235:Core/Src/stm32f4xx_it.c **** void TIM2_IRQHandler(void)
 236:Core/Src/stm32f4xx_it.c **** {
 219              		.loc 1 236 0
 220              		.cfi_startproc
 221              		@ args = 0, pretend = 0, frame = 0
 222              		@ frame_needed = 0, uses_anonymous_args = 0
 223 0000 08B5     		push	{r3, lr}
 224              	.LCFI1:
 225              		.cfi_def_cfa_offset 8
 226              		.cfi_offset 3, -8
 227              		.cfi_offset 14, -4
 237:Core/Src/stm32f4xx_it.c ****   /* USER CODE BEGIN TIM2_IRQn 0 */
 238:Core/Src/stm32f4xx_it.c **** 
 239:Core/Src/stm32f4xx_it.c ****   /* USER CODE END TIM2_IRQn 0 */
 240:Core/Src/stm32f4xx_it.c ****   HAL_TIM_IRQHandler(&htim2);
 228              		.loc 1 240 0
 229 0002 0248     		ldr	r0, .L17
 230 0004 FFF7FEFF 		bl	HAL_TIM_IRQHandler
 231              	.LVL1:
 241:Core/Src/stm32f4xx_it.c ****   /* USER CODE BEGIN TIM2_IRQn 1 */
 242:Core/Src/stm32f4xx_it.c **** 
 243:Core/Src/stm32f4xx_it.c ****   /* USER CODE END TIM2_IRQn 1 */
 244:Core/Src/stm32f4xx_it.c **** }
ARM GAS  C:\Users\63143\AppData\Local\Temp\ccUTh8Kz.s 			page 9


 232              		.loc 1 244 0
 233 0008 08BD     		pop	{r3, pc}
 234              	.L18:
 235 000a 00BF     		.align	2
 236              	.L17:
 237 000c 00000000 		.word	htim2
 238              		.cfi_endproc
 239              	.LFE165:
 241              		.section	.text.TIM3_IRQHandler,"ax",%progbits
 242              		.align	1
 243              		.global	TIM3_IRQHandler
 244              		.syntax unified
 245              		.thumb
 246              		.thumb_func
 247              		.fpu fpv4-sp-d16
 249              	TIM3_IRQHandler:
 250              	.LFB166:
 245:Core/Src/stm32f4xx_it.c **** 
 246:Core/Src/stm32f4xx_it.c **** void TIM3_IRQHandler(void)
 247:Core/Src/stm32f4xx_it.c **** {
 251              		.loc 1 247 0
 252              		.cfi_startproc
 253              		@ args = 0, pretend = 0, frame = 0
 254              		@ frame_needed = 0, uses_anonymous_args = 0
 255 0000 08B5     		push	{r3, lr}
 256              	.LCFI2:
 257              		.cfi_def_cfa_offset 8
 258              		.cfi_offset 3, -8
 259              		.cfi_offset 14, -4
 248:Core/Src/stm32f4xx_it.c ****   /* USER CODE BEGIN TIM3_IRQn 0 */
 249:Core/Src/stm32f4xx_it.c **** 
 250:Core/Src/stm32f4xx_it.c ****   /* USER CODE END TIM3_IRQn 0 */
 251:Core/Src/stm32f4xx_it.c ****   HAL_TIM_IRQHandler(&htim3);
 260              		.loc 1 251 0
 261 0002 0248     		ldr	r0, .L21
 262 0004 FFF7FEFF 		bl	HAL_TIM_IRQHandler
 263              	.LVL2:
 252:Core/Src/stm32f4xx_it.c ****   /* USER CODE BEGIN TIM3_IRQn 1 */
 253:Core/Src/stm32f4xx_it.c **** 
 254:Core/Src/stm32f4xx_it.c ****   /* USER CODE END TIM3_IRQn 1 */
 255:Core/Src/stm32f4xx_it.c **** }
 264              		.loc 1 255 0
 265 0008 08BD     		pop	{r3, pc}
 266              	.L22:
 267 000a 00BF     		.align	2
 268              	.L21:
 269 000c 00000000 		.word	htim3
 270              		.cfi_endproc
 271              	.LFE166:
 273              		.section	.text.USART1_IRQHandler,"ax",%progbits
 274              		.align	1
 275              		.global	USART1_IRQHandler
 276              		.syntax unified
 277              		.thumb
 278              		.thumb_func
 279              		.fpu fpv4-sp-d16
 281              	USART1_IRQHandler:
ARM GAS  C:\Users\63143\AppData\Local\Temp\ccUTh8Kz.s 			page 10


 282              	.LFB167:
 256:Core/Src/stm32f4xx_it.c **** 
 257:Core/Src/stm32f4xx_it.c **** void USART1_IRQHandler(void)
 258:Core/Src/stm32f4xx_it.c **** {
 283              		.loc 1 258 0
 284              		.cfi_startproc
 285              		@ args = 0, pretend = 0, frame = 0
 286              		@ frame_needed = 0, uses_anonymous_args = 0
 287 0000 08B5     		push	{r3, lr}
 288              	.LCFI3:
 289              		.cfi_def_cfa_offset 8
 290              		.cfi_offset 3, -8
 291              		.cfi_offset 14, -4
 259:Core/Src/stm32f4xx_it.c ****   /* USER CODE BEGIN USART3_IRQn 0 */
 260:Core/Src/stm32f4xx_it.c **** 
 261:Core/Src/stm32f4xx_it.c ****   /* USER CODE END USART3_IRQn 0 */
 262:Core/Src/stm32f4xx_it.c ****   HAL_UART_IRQHandler(&huart1);
 292              		.loc 1 262 0
 293 0002 0248     		ldr	r0, .L25
 294 0004 FFF7FEFF 		bl	HAL_UART_IRQHandler
 295              	.LVL3:
 263:Core/Src/stm32f4xx_it.c ****   /* USER CODE BEGIN USART3_IRQn 1 */
 264:Core/Src/stm32f4xx_it.c **** 
 265:Core/Src/stm32f4xx_it.c ****   /* USER CODE END USART3_IRQn 1 */
 266:Core/Src/stm32f4xx_it.c **** }
 296              		.loc 1 266 0
 297 0008 08BD     		pop	{r3, pc}
 298              	.L26:
 299 000a 00BF     		.align	2
 300              	.L25:
 301 000c 00000000 		.word	huart1
 302              		.cfi_endproc
 303              	.LFE167:
 305              		.section	.text.USART3_IRQHandler,"ax",%progbits
 306              		.align	1
 307              		.global	USART3_IRQHandler
 308              		.syntax unified
 309              		.thumb
 310              		.thumb_func
 311              		.fpu fpv4-sp-d16
 313              	USART3_IRQHandler:
 314              	.LFB168:
 267:Core/Src/stm32f4xx_it.c **** 
 268:Core/Src/stm32f4xx_it.c **** void USART3_IRQHandler(void)
 269:Core/Src/stm32f4xx_it.c **** {
 315              		.loc 1 269 0
 316              		.cfi_startproc
 317              		@ args = 0, pretend = 0, frame = 0
 318              		@ frame_needed = 0, uses_anonymous_args = 0
 319 0000 08B5     		push	{r3, lr}
 320              	.LCFI4:
 321              		.cfi_def_cfa_offset 8
 322              		.cfi_offset 3, -8
 323              		.cfi_offset 14, -4
 270:Core/Src/stm32f4xx_it.c ****   /* USER CODE BEGIN USART3_IRQn 0 */
 271:Core/Src/stm32f4xx_it.c ****   // counter++;
 272:Core/Src/stm32f4xx_it.c ****   /* USER CODE END USART3_IRQn 0 */
ARM GAS  C:\Users\63143\AppData\Local\Temp\ccUTh8Kz.s 			page 11


 273:Core/Src/stm32f4xx_it.c ****   HAL_UART_IRQHandler(&huart3);
 324              		.loc 1 273 0
 325 0002 0248     		ldr	r0, .L29
 326 0004 FFF7FEFF 		bl	HAL_UART_IRQHandler
 327              	.LVL4:
 274:Core/Src/stm32f4xx_it.c ****   /* USER CODE BEGIN USART3_IRQn 1 */
 275:Core/Src/stm32f4xx_it.c **** 
 276:Core/Src/stm32f4xx_it.c ****   /* USER CODE END USART3_IRQn 1 */
 277:Core/Src/stm32f4xx_it.c **** }
 328              		.loc 1 277 0
 329 0008 08BD     		pop	{r3, pc}
 330              	.L30:
 331 000a 00BF     		.align	2
 332              	.L29:
 333 000c 00000000 		.word	huart3
 334              		.cfi_endproc
 335              	.LFE168:
 337              		.global	__aeabi_dadd
 338              		.global	__aeabi_f2d
 339              		.global	__aeabi_dmul
 340              		.global	__aeabi_ddiv
 341              		.global	__aeabi_d2f
 342              		.global	__aeabi_d2uiz
 343              		.global	__aeabi_dsub
 344              		.section	.text.HAL_TIM_PeriodElapsedCallback,"ax",%progbits
 345              		.align	1
 346              		.global	HAL_TIM_PeriodElapsedCallback
 347              		.syntax unified
 348              		.thumb
 349              		.thumb_func
 350              		.fpu fpv4-sp-d16
 352              	HAL_TIM_PeriodElapsedCallback:
 353              	.LFB169:
 278:Core/Src/stm32f4xx_it.c **** 
 279:Core/Src/stm32f4xx_it.c **** /* USER CODE BEGIN 1 */
 280:Core/Src/stm32f4xx_it.c **** static float64_t t_ms = 0;
 281:Core/Src/stm32f4xx_it.c **** 
 282:Core/Src/stm32f4xx_it.c **** void HAL_TIM_PeriodElapsedCallback(TIM_HandleTypeDef *htim)
 283:Core/Src/stm32f4xx_it.c **** {
 354              		.loc 1 283 0
 355              		.cfi_startproc
 356              		@ args = 0, pretend = 0, frame = 8
 357              		@ frame_needed = 0, uses_anonymous_args = 0
 358              	.LVL5:
 359 0000 2DE9F04F 		push	{r4, r5, r6, r7, r8, r9, r10, fp, lr}
 360              	.LCFI5:
 361              		.cfi_def_cfa_offset 36
 362              		.cfi_offset 4, -36
 363              		.cfi_offset 5, -32
 364              		.cfi_offset 6, -28
 365              		.cfi_offset 7, -24
 366              		.cfi_offset 8, -20
 367              		.cfi_offset 9, -16
 368              		.cfi_offset 10, -12
 369              		.cfi_offset 11, -8
 370              		.cfi_offset 14, -4
 371 0004 83B0     		sub	sp, sp, #12
ARM GAS  C:\Users\63143\AppData\Local\Temp\ccUTh8Kz.s 			page 12


 372              	.LCFI6:
 373              		.cfi_def_cfa_offset 48
 374 0006 0446     		mov	r4, r0
 284:Core/Src/stm32f4xx_it.c ****   if (htim->Instance == TIM2)
 375              		.loc 1 284 0
 376 0008 0368     		ldr	r3, [r0]
 377 000a B3F1804F 		cmp	r3, #1073741824
 378 000e 06D0     		beq	.L36
 379              	.LVL6:
 380              	.L32:
 285:Core/Src/stm32f4xx_it.c ****   {
 286:Core/Src/stm32f4xx_it.c ****     HAL_GPIO_TogglePin(GPIOG, GPIO_PIN_13);
 287:Core/Src/stm32f4xx_it.c ****   }
 288:Core/Src/stm32f4xx_it.c **** 
 289:Core/Src/stm32f4xx_it.c ****   if (htim->Instance == TIM3)
 381              		.loc 1 289 0
 382 0010 2268     		ldr	r2, [r4]
 383 0012 8D4B     		ldr	r3, .L39+32
 384 0014 9A42     		cmp	r2, r3
 385 0016 08D0     		beq	.L37
 386              	.LVL7:
 387              	.L31:
 290:Core/Src/stm32f4xx_it.c ****   {
 291:Core/Src/stm32f4xx_it.c ****     t_ms += T; //计时器
 292:Core/Src/stm32f4xx_it.c ****     if (ctrl)
 293:Core/Src/stm32f4xx_it.c ****     {
 294:Core/Src/stm32f4xx_it.c ****       uint16_t val1 = (uint16_t)(VOLTAGE_CONV(voltage) * arm_sin_f32(2 * PI * 50 * t_ms + 0 + DEG2R
 295:Core/Src/stm32f4xx_it.c ****       uint16_t val2 = (uint16_t)(VOLTAGE_CONV(voltage) * arm_sin_f32(2 * PI * 50 * t_ms + 2 * PI / 
 296:Core/Src/stm32f4xx_it.c ****       uint16_t val3 = (uint16_t)(VOLTAGE_CONV(voltage) * arm_sin_f32(2 * PI * 50 * t_ms - 2 * PI / 
 297:Core/Src/stm32f4xx_it.c **** 
 298:Core/Src/stm32f4xx_it.c ****       TLV56xx_WriteChannelVoltage(ch1, val1);
 299:Core/Src/stm32f4xx_it.c ****       TLV56xx_WriteChannelVoltage(ch2, val2);
 300:Core/Src/stm32f4xx_it.c ****       TLV56xx_WriteChannelVoltage(ch3, val3);
 301:Core/Src/stm32f4xx_it.c ****     }
 302:Core/Src/stm32f4xx_it.c ****     else
 303:Core/Src/stm32f4xx_it.c ****     {
 304:Core/Src/stm32f4xx_it.c ****       TLV56xx_WriteChannelVoltage(ch1, 0);
 305:Core/Src/stm32f4xx_it.c ****       TLV56xx_WriteChannelVoltage(ch2, 0);
 306:Core/Src/stm32f4xx_it.c ****       TLV56xx_WriteChannelVoltage(ch3, 0);
 307:Core/Src/stm32f4xx_it.c ****     }
 308:Core/Src/stm32f4xx_it.c ****     
 309:Core/Src/stm32f4xx_it.c ****   }
 310:Core/Src/stm32f4xx_it.c **** }
 388              		.loc 1 310 0
 389 0018 03B0     		add	sp, sp, #12
 390              	.LCFI7:
 391              		.cfi_remember_state
 392              		.cfi_def_cfa_offset 36
 393              		@ sp needed
 394 001a BDE8F08F 		pop	{r4, r5, r6, r7, r8, r9, r10, fp, pc}
 395              	.LVL8:
 396              	.L36:
 397              	.LCFI8:
 398              		.cfi_restore_state
 286:Core/Src/stm32f4xx_it.c ****   }
 399              		.loc 1 286 0
 400 001e 4FF40051 		mov	r1, #8192
ARM GAS  C:\Users\63143\AppData\Local\Temp\ccUTh8Kz.s 			page 13


 401 0022 8A48     		ldr	r0, .L39+36
 402              	.LVL9:
 403 0024 FFF7FEFF 		bl	HAL_GPIO_TogglePin
 404              	.LVL10:
 405 0028 F2E7     		b	.L32
 406              	.L37:
 291:Core/Src/stm32f4xx_it.c ****     if (ctrl)
 407              		.loc 1 291 0
 408 002a 894C     		ldr	r4, .L39+40
 409              	.LVL11:
 410 002c 894B     		ldr	r3, .L39+44
 411 002e D3E90023 		ldrd	r2, [r3]
 412 0032 D4E90001 		ldrd	r0, [r4]
 413 0036 FFF7FEFF 		bl	__aeabi_dadd
 414              	.LVL12:
 415 003a 8046     		mov	r8, r0
 416 003c 8946     		mov	r9, r1
 417 003e C4E90089 		strd	r8, [r4]
 292:Core/Src/stm32f4xx_it.c ****     {
 418              		.loc 1 292 0
 419 0042 854B     		ldr	r3, .L39+48
 420 0044 1B78     		ldrb	r3, [r3]	@ zero_extendqisi2
 421 0046 63B9     		cbnz	r3, .L38
 304:Core/Src/stm32f4xx_it.c ****       TLV56xx_WriteChannelVoltage(ch2, 0);
 422              		.loc 1 304 0
 423 0048 0021     		movs	r1, #0
 424 004a 0846     		mov	r0, r1
 425 004c FFF7FEFF 		bl	TLV56xx_WriteChannelVoltage
 426              	.LVL13:
 305:Core/Src/stm32f4xx_it.c ****       TLV56xx_WriteChannelVoltage(ch3, 0);
 427              		.loc 1 305 0
 428 0050 0021     		movs	r1, #0
 429 0052 0120     		movs	r0, #1
 430 0054 FFF7FEFF 		bl	TLV56xx_WriteChannelVoltage
 431              	.LVL14:
 306:Core/Src/stm32f4xx_it.c ****     }
 432              		.loc 1 306 0
 433 0058 0021     		movs	r1, #0
 434 005a 0220     		movs	r0, #2
 435 005c FFF7FEFF 		bl	TLV56xx_WriteChannelVoltage
 436              	.LVL15:
 437              		.loc 1 310 0
 438 0060 DAE7     		b	.L31
 439              	.L38:
 440              	.LBB2:
 294:Core/Src/stm32f4xx_it.c ****       uint16_t val2 = (uint16_t)(VOLTAGE_CONV(voltage) * arm_sin_f32(2 * PI * 50 * t_ms + 2 * PI / 
 441              		.loc 1 294 0
 442 0062 7E4D     		ldr	r5, .L39+52
 443 0064 2868     		ldr	r0, [r5]	@ float
 444 0066 FFF7FEFF 		bl	__aeabi_f2d
 445              	.LVL16:
 446 006a 6FA3     		adr	r3, .L39
 447 006c D3E90023 		ldrd	r2, [r3]
 448 0070 FFF7FEFF 		bl	__aeabi_dmul
 449              	.LVL17:
 450 0074 0022     		movs	r2, #0
 451 0076 7A4B     		ldr	r3, .L39+56
ARM GAS  C:\Users\63143\AppData\Local\Temp\ccUTh8Kz.s 			page 14


 452 0078 FFF7FEFF 		bl	__aeabi_ddiv
 453              	.LVL18:
 454 007c 0646     		mov	r6, r0
 455 007e 0F46     		mov	r7, r1
 456 0080 6BA3     		adr	r3, .L39+8
 457 0082 D3E90023 		ldrd	r2, [r3]
 458 0086 4046     		mov	r0, r8
 459 0088 4946     		mov	r1, r9
 460 008a FFF7FEFF 		bl	__aeabi_dmul
 461              	.LVL19:
 462 008e 0022     		movs	r2, #0
 463 0090 0023     		movs	r3, #0
 464 0092 FFF7FEFF 		bl	__aeabi_dadd
 465              	.LVL20:
 466 0096 8046     		mov	r8, r0
 467 0098 8946     		mov	r9, r1
 468 009a 724C     		ldr	r4, .L39+60
 469 009c 2068     		ldr	r0, [r4]	@ float
 470 009e FFF7FEFF 		bl	__aeabi_f2d
 471              	.LVL21:
 472 00a2 65A3     		adr	r3, .L39+16
 473 00a4 D3E90023 		ldrd	r2, [r3]
 474 00a8 FFF7FEFF 		bl	__aeabi_dmul
 475              	.LVL22:
 476 00ac 0022     		movs	r2, #0
 477 00ae 6E4B     		ldr	r3, .L39+64
 478 00b0 FFF7FEFF 		bl	__aeabi_ddiv
 479              	.LVL23:
 480 00b4 0246     		mov	r2, r0
 481 00b6 0B46     		mov	r3, r1
 482 00b8 4046     		mov	r0, r8
 483 00ba 4946     		mov	r1, r9
 484 00bc FFF7FEFF 		bl	__aeabi_dadd
 485              	.LVL24:
 486 00c0 FFF7FEFF 		bl	__aeabi_d2f
 487              	.LVL25:
 488 00c4 00EE100A 		vmov	s0, r0
 489 00c8 FFF7FEFF 		bl	arm_sin_f32
 490              	.LVL26:
 491 00cc 10EE100A 		vmov	r0, s0
 492 00d0 FFF7FEFF 		bl	__aeabi_f2d
 493              	.LVL27:
 494 00d4 0246     		mov	r2, r0
 495 00d6 0B46     		mov	r3, r1
 496 00d8 3046     		mov	r0, r6
 497 00da 3946     		mov	r1, r7
 498 00dc FFF7FEFF 		bl	__aeabi_dmul
 499              	.LVL28:
 500 00e0 51A3     		adr	r3, .L39
 501 00e2 D3E90023 		ldrd	r2, [r3]
 502 00e6 FFF7FEFF 		bl	__aeabi_dadd
 503              	.LVL29:
 504 00ea FFF7FEFF 		bl	__aeabi_d2uiz
 505              	.LVL30:
 506 00ee 1FFA80FB 		uxth	fp, r0
 507              	.LVL31:
 295:Core/Src/stm32f4xx_it.c ****       uint16_t val3 = (uint16_t)(VOLTAGE_CONV(voltage) * arm_sin_f32(2 * PI * 50 * t_ms - 2 * PI / 
ARM GAS  C:\Users\63143\AppData\Local\Temp\ccUTh8Kz.s 			page 15


 508              		.loc 1 295 0
 509 00f2 2868     		ldr	r0, [r5]	@ float
 510 00f4 FFF7FEFF 		bl	__aeabi_f2d
 511              	.LVL32:
 512 00f8 4BA3     		adr	r3, .L39
 513 00fa D3E90023 		ldrd	r2, [r3]
 514 00fe FFF7FEFF 		bl	__aeabi_dmul
 515              	.LVL33:
 516 0102 0022     		movs	r2, #0
 517 0104 564B     		ldr	r3, .L39+56
 518 0106 FFF7FEFF 		bl	__aeabi_ddiv
 519              	.LVL34:
 520 010a 8046     		mov	r8, r0
 521 010c 8946     		mov	r9, r1
 522 010e DFF840A1 		ldr	r10, .L39+40
 523 0112 47A3     		adr	r3, .L39+8
 524 0114 D3E90023 		ldrd	r2, [r3]
 525 0118 DAE90001 		ldrd	r0, [r10]
 526 011c FFF7FEFF 		bl	__aeabi_dmul
 527              	.LVL35:
 528 0120 47A3     		adr	r3, .L39+24
 529 0122 D3E90023 		ldrd	r2, [r3]
 530 0126 FFF7FEFF 		bl	__aeabi_dadd
 531              	.LVL36:
 532 012a 0646     		mov	r6, r0
 533 012c 0F46     		mov	r7, r1
 534 012e 2068     		ldr	r0, [r4]	@ float
 535 0130 FFF7FEFF 		bl	__aeabi_f2d
 536              	.LVL37:
 537 0134 40A3     		adr	r3, .L39+16
 538 0136 D3E90023 		ldrd	r2, [r3]
 539 013a FFF7FEFF 		bl	__aeabi_dmul
 540              	.LVL38:
 541 013e 0022     		movs	r2, #0
 542 0140 494B     		ldr	r3, .L39+64
 543 0142 FFF7FEFF 		bl	__aeabi_ddiv
 544              	.LVL39:
 545 0146 0246     		mov	r2, r0
 546 0148 0B46     		mov	r3, r1
 547 014a 3046     		mov	r0, r6
 548 014c 3946     		mov	r1, r7
 549 014e FFF7FEFF 		bl	__aeabi_dadd
 550              	.LVL40:
 551 0152 FFF7FEFF 		bl	__aeabi_d2f
 552              	.LVL41:
 553 0156 00EE100A 		vmov	s0, r0
 554 015a FFF7FEFF 		bl	arm_sin_f32
 555              	.LVL42:
 556 015e 10EE100A 		vmov	r0, s0
 557 0162 FFF7FEFF 		bl	__aeabi_f2d
 558              	.LVL43:
 559 0166 0246     		mov	r2, r0
 560 0168 0B46     		mov	r3, r1
 561 016a 4046     		mov	r0, r8
 562 016c 4946     		mov	r1, r9
 563 016e FFF7FEFF 		bl	__aeabi_dmul
 564              	.LVL44:
ARM GAS  C:\Users\63143\AppData\Local\Temp\ccUTh8Kz.s 			page 16


 565 0172 2DA3     		adr	r3, .L39
 566 0174 D3E90023 		ldrd	r2, [r3]
 567 0178 FFF7FEFF 		bl	__aeabi_dadd
 568              	.LVL45:
 569 017c FFF7FEFF 		bl	__aeabi_d2uiz
 570              	.LVL46:
 571 0180 86B2     		uxth	r6, r0
 572              	.LVL47:
 296:Core/Src/stm32f4xx_it.c **** 
 573              		.loc 1 296 0
 574 0182 2868     		ldr	r0, [r5]	@ float
 575 0184 FFF7FEFF 		bl	__aeabi_f2d
 576              	.LVL48:
 577 0188 27A3     		adr	r3, .L39
 578 018a D3E90023 		ldrd	r2, [r3]
 579 018e FFF7FEFF 		bl	__aeabi_dmul
 580              	.LVL49:
 581 0192 0022     		movs	r2, #0
 582 0194 324B     		ldr	r3, .L39+56
 583 0196 FFF7FEFF 		bl	__aeabi_ddiv
 584              	.LVL50:
 585 019a CDE90001 		strd	r0, [sp]
 586 019e 24A3     		adr	r3, .L39+8
 587 01a0 D3E90023 		ldrd	r2, [r3]
 588 01a4 DAE90001 		ldrd	r0, [r10]
 589 01a8 FFF7FEFF 		bl	__aeabi_dmul
 590              	.LVL51:
 591 01ac 24A3     		adr	r3, .L39+24
 592 01ae D3E90023 		ldrd	r2, [r3]
 593 01b2 FFF7FEFF 		bl	__aeabi_dsub
 594              	.LVL52:
 595 01b6 8046     		mov	r8, r0
 596 01b8 8946     		mov	r9, r1
 597 01ba 2068     		ldr	r0, [r4]	@ float
 598 01bc FFF7FEFF 		bl	__aeabi_f2d
 599              	.LVL53:
 600 01c0 1DA3     		adr	r3, .L39+16
 601 01c2 D3E90023 		ldrd	r2, [r3]
 602 01c6 FFF7FEFF 		bl	__aeabi_dmul
 603              	.LVL54:
 604 01ca 0022     		movs	r2, #0
 605 01cc 264B     		ldr	r3, .L39+64
 606 01ce FFF7FEFF 		bl	__aeabi_ddiv
 607              	.LVL55:
 608 01d2 0246     		mov	r2, r0
 609 01d4 0B46     		mov	r3, r1
 610 01d6 4046     		mov	r0, r8
 611 01d8 4946     		mov	r1, r9
 612 01da FFF7FEFF 		bl	__aeabi_dadd
 613              	.LVL56:
 614 01de FFF7FEFF 		bl	__aeabi_d2f
 615              	.LVL57:
 616 01e2 00EE100A 		vmov	s0, r0
 617 01e6 FFF7FEFF 		bl	arm_sin_f32
 618              	.LVL58:
 619 01ea 10EE100A 		vmov	r0, s0
 620 01ee FFF7FEFF 		bl	__aeabi_f2d
ARM GAS  C:\Users\63143\AppData\Local\Temp\ccUTh8Kz.s 			page 17


 621              	.LVL59:
 622 01f2 0246     		mov	r2, r0
 623 01f4 0B46     		mov	r3, r1
 624 01f6 DDE90001 		ldrd	r0, [sp]
 625 01fa FFF7FEFF 		bl	__aeabi_dmul
 626              	.LVL60:
 627 01fe 0AA3     		adr	r3, .L39
 628 0200 D3E90023 		ldrd	r2, [r3]
 629 0204 FFF7FEFF 		bl	__aeabi_dadd
 630              	.LVL61:
 631 0208 FFF7FEFF 		bl	__aeabi_d2uiz
 632              	.LVL62:
 633 020c 84B2     		uxth	r4, r0
 634              	.LVL63:
 298:Core/Src/stm32f4xx_it.c ****       TLV56xx_WriteChannelVoltage(ch2, val2);
 635              		.loc 1 298 0
 636 020e 5946     		mov	r1, fp
 637 0210 0020     		movs	r0, #0
 638 0212 FFF7FEFF 		bl	TLV56xx_WriteChannelVoltage
 639              	.LVL64:
 299:Core/Src/stm32f4xx_it.c ****       TLV56xx_WriteChannelVoltage(ch3, val3);
 640              		.loc 1 299 0
 641 0216 3146     		mov	r1, r6
 642 0218 0120     		movs	r0, #1
 643 021a FFF7FEFF 		bl	TLV56xx_WriteChannelVoltage
 644              	.LVL65:
 300:Core/Src/stm32f4xx_it.c ****     }
 645              		.loc 1 300 0
 646 021e 2146     		mov	r1, r4
 647 0220 0220     		movs	r0, #2
 648 0222 FFF7FEFF 		bl	TLV56xx_WriteChannelVoltage
 649              	.LVL66:
 650              	.LBE2:
 651 0226 F7E6     		b	.L31
 652              	.L40:
 653              		.align	3
 654              	.L39:
 655 0228 00000000 		.word	0
 656 022c 0088A340 		.word	1084459008
 657 0230 00000060 		.word	1610612736
 658 0234 8CA27340 		.word	1081320076
 659 0238 182D4454 		.word	1413754136
 660 023c FB210940 		.word	1074340347
 661 0240 00000040 		.word	1073741824
 662 0244 52C10040 		.word	1073791314
 663 0248 00040040 		.word	1073742848
 664 024c 00180240 		.word	1073879040
 665 0250 00000000 		.word	.LANCHOR0
 666 0254 00000000 		.word	T
 667 0258 00000000 		.word	ctrl
 668 025c 00000000 		.word	voltage
 669 0260 00005940 		.word	1079574528
 670 0264 00000000 		.word	phase
 671 0268 00806640 		.word	1080459264
 672              		.cfi_endproc
 673              	.LFE169:
 675              		.section	.text.HAL_UART_RxCpltCallback,"ax",%progbits
ARM GAS  C:\Users\63143\AppData\Local\Temp\ccUTh8Kz.s 			page 18


 676              		.align	1
 677              		.global	HAL_UART_RxCpltCallback
 678              		.syntax unified
 679              		.thumb
 680              		.thumb_func
 681              		.fpu fpv4-sp-d16
 683              	HAL_UART_RxCpltCallback:
 684              	.LFB170:
 311:Core/Src/stm32f4xx_it.c **** 
 312:Core/Src/stm32f4xx_it.c **** void HAL_UART_RxCpltCallback(UART_HandleTypeDef *huart)
 313:Core/Src/stm32f4xx_it.c **** {
 685              		.loc 1 313 0
 686              		.cfi_startproc
 687              		@ args = 0, pretend = 0, frame = 0
 688              		@ frame_needed = 0, uses_anonymous_args = 0
 689              	.LVL67:
 314:Core/Src/stm32f4xx_it.c ****   if (huart->Instance == USART3)
 690              		.loc 1 314 0
 691 0000 0268     		ldr	r2, [r0]
 692 0002 084B     		ldr	r3, .L48
 693 0004 9A42     		cmp	r2, r3
 694 0006 00D0     		beq	.L47
 695 0008 7047     		bx	lr
 696              	.L47:
 313:Core/Src/stm32f4xx_it.c ****   if (huart->Instance == USART3)
 697              		.loc 1 313 0
 698 000a 10B5     		push	{r4, lr}
 699              	.LCFI9:
 700              		.cfi_def_cfa_offset 8
 701              		.cfi_offset 4, -8
 702              		.cfi_offset 14, -4
 315:Core/Src/stm32f4xx_it.c ****   {
 316:Core/Src/stm32f4xx_it.c ****     queue_push(&myqueue, uart3_rev_cache[0]);
 703              		.loc 1 316 0
 704 000c 064C     		ldr	r4, .L48+4
 705 000e 2178     		ldrb	r1, [r4]	@ zero_extendqisi2
 706 0010 0648     		ldr	r0, .L48+8
 707              	.LVL68:
 708 0012 FFF7FEFF 		bl	queue_push
 709              	.LVL69:
 317:Core/Src/stm32f4xx_it.c ****     HAL_UART_Receive_IT(&huart3, uart3_rev_cache, 1);
 710              		.loc 1 317 0
 711 0016 0122     		movs	r2, #1
 712 0018 2146     		mov	r1, r4
 713 001a 0548     		ldr	r0, .L48+12
 714 001c FFF7FEFF 		bl	HAL_UART_Receive_IT
 715              	.LVL70:
 318:Core/Src/stm32f4xx_it.c ****   }
 319:Core/Src/stm32f4xx_it.c **** }
 716              		.loc 1 319 0
 717 0020 10BD     		pop	{r4, pc}
 718              	.L49:
 719 0022 00BF     		.align	2
 720              	.L48:
 721 0024 00480040 		.word	1073760256
 722 0028 00000000 		.word	uart3_rev_cache
 723 002c 00000000 		.word	myqueue
ARM GAS  C:\Users\63143\AppData\Local\Temp\ccUTh8Kz.s 			page 19


 724 0030 00000000 		.word	huart3
 725              		.cfi_endproc
 726              	.LFE170:
 728              		.section	.bss.t_ms,"aw",%nobits
 729              		.align	3
 730              		.set	.LANCHOR0,. + 0
 733              	t_ms:
 734 0000 00000000 		.space	8
 734      00000000 
 735              		.text
 736              	.Letext0:
 737              		.file 2 "c:\\msys64\\home\\63143\\gcc-arm-none-eabi-7-2018-q2-update-win32\\arm-none-eabi\\include
 738              		.file 3 "c:\\msys64\\home\\63143\\gcc-arm-none-eabi-7-2018-q2-update-win32\\arm-none-eabi\\include
 739              		.file 4 "Drivers/CMSIS/Include/core_cm4.h"
 740              		.file 5 "Drivers/CMSIS/Device/ST/STM32F4xx/Include/system_stm32f4xx.h"
 741              		.file 6 "Drivers/CMSIS/Device/ST/STM32F4xx/Include/stm32f429xx.h"
 742              		.file 7 "Drivers/STM32F4xx_HAL_Driver/Inc/stm32f4xx_hal_def.h"
 743              		.file 8 "Drivers/STM32F4xx_HAL_Driver/Inc/stm32f4xx_hal_dma.h"
 744              		.file 9 "Drivers/STM32F4xx_HAL_Driver/Inc/stm32f4xx_hal_tim.h"
 745              		.file 10 "Drivers/STM32F4xx_HAL_Driver/Inc/stm32f4xx_hal_uart.h"
 746              		.file 11 "c:\\msys64\\home\\63143\\gcc-arm-none-eabi-7-2018-q2-update-win32\\arm-none-eabi\\includ
 747              		.file 12 "c:\\msys64\\home\\63143\\gcc-arm-none-eabi-7-2018-q2-update-win32\\arm-none-eabi\\includ
 748              		.file 13 "c:\\msys64\\home\\63143\\gcc-arm-none-eabi-7-2018-q2-update-win32\\lib\\gcc\\arm-none-ea
 749              		.file 14 "c:\\msys64\\home\\63143\\gcc-arm-none-eabi-7-2018-q2-update-win32\\arm-none-eabi\\includ
 750              		.file 15 "c:\\msys64\\home\\63143\\gcc-arm-none-eabi-7-2018-q2-update-win32\\arm-none-eabi\\includ
 751              		.file 16 "Drivers/CMSIS/Include/arm_math.h"
 752              		.file 17 "Core/Inc/usart.h"
 753              		.file 18 "Core/Inc/tim.h"
 754              		.file 19 "Core/Inc/TLV56xx.h"
 755              		.file 20 "Core/Inc/array_queue.h"
 756              		.file 21 "Core/Inc/hmi_driver.h"
 757              		.file 22 "Drivers/STM32F4xx_HAL_Driver/Inc/stm32f4xx_hal_gpio.h"
 758              		.file 23 "Drivers/STM32F4xx_HAL_Driver/Inc/stm32f4xx_hal.h"
ARM GAS  C:\Users\63143\AppData\Local\Temp\ccUTh8Kz.s 			page 20

